(iPool
Pool
p0
(dp1
S'members'
p2
(lp3
(iMember
Member
p4
(dp5
S'username'
p6
S'jambuzzed'
p7
sba(iMember
Member
p8
(dp9
g6
S'YukikoMizuki'
p10
sbasS'balance'
p11
I1000
sS'status'
p12
S'Spenden werden gesammelt'
p13
sS'goal'
p14
I200000
sb.